target datalayout = "e-m:e-p270:32:32-p271:32:32-p272:64:64-i64:64-i128:128-f80:128-n8:16:32:64-S128"
target triple = "x86_64-pc-linux-gnu"

%"class.absl::lts_20240722::Status" = type { i64 }
%"class.grpc_core::FaultInjectionFilter::InjectionDecision" = type <{ i32, [4 x i8], %"class.grpc_core::Duration", %"class.std::optional", %"class.grpc_core::(anonymous namespace)::FaultHandle", [7 x i8] }>
%"class.grpc_core::Duration" = type { i64 }
%"class.std::optional" = type { %"struct.std::_Optional_base" }
%"struct.std::_Optional_base" = type { %"struct.std::_Optional_payload" }
%"struct.std::_Optional_payload" = type { %"struct.std::_Optional_payload.base", [7 x i8] }
%"struct.std::_Optional_payload.base" = type { %"struct.std::_Optional_payload_base.base" }
%"struct.std::_Optional_payload_base.base" = type <{ %"union.std::_Optional_payload_base<absl::lts_20240722::Status>::_Storage", i8 }>
%"union.std::_Optional_payload_base<absl::lts_20240722::Status>::_Storage" = type { %"class.absl::lts_20240722::Status" }
%"class.grpc_core::(anonymous namespace)::FaultHandle" = type { i8 }
%"class.grpc_core::Timestamp" = type { i64 }
%"class.grpc_core::promise_detail::TrySeq" = type { %"struct.grpc_core::promise_detail::SeqState" }
%"struct.grpc_core::promise_detail::SeqState" = type <{ %union.anon.59, i8, [7 x i8] }>
%union.anon.59 = type { %"struct.grpc_core::promise_detail::SeqState<grpc_core::promise_detail::TrySeqTraits, grpc_core::Sleep, (lambda at /home/dtcxzyw/WorkSpace/Projects/compilers/llvm-opt-benchmark/bench/grpc/grpc/src/core/ext/filters/fault_injection/fault_injection_filter.cc:147:31)>::Running0" }
%"struct.grpc_core::promise_detail::SeqState<grpc_core::promise_detail::TrySeqTraits, grpc_core::Sleep, (lambda at /home/dtcxzyw/WorkSpace/Projects/compilers/llvm-opt-benchmark/bench/grpc/grpc/src/core/ext/filters/fault_injection/fault_injection_filter.cc:147:31)>::Running0" = type { %"class.grpc_core::promise_detail::PromiseLike", %"class.grpc_core::promise_detail::OncePromiseFactory" }
%"class.grpc_core::promise_detail::PromiseLike" = type { %"class.grpc_core::Sleep" }
%"class.grpc_core::Sleep" = type { %"class.grpc_core::Timestamp", ptr }
%"class.grpc_core::promise_detail::OncePromiseFactory" = type { %class.anon }
%class.anon = type { %"class.grpc_core::FaultInjectionFilter::InjectionDecision" }
%"struct.std::__atomic_base.100" = type { i32 }
%"struct.std::_Optional_payload_base" = type <{ %"union.std::_Optional_payload_base<absl::lts_20240722::Status>::_Storage", i8, [7 x i8] }>
%"class.grpc_core::promise_detail::PromiseLike.60" = type { %class.anon.61 }
%class.anon.61 = type { %"class.absl::lts_20240722::Status" }

@_ZN9grpc_core12_GLOBAL__N_115g_active_faultsE = internal global { i32 } zeroinitializer, align 4

; Function Attrs: mustprogress nounwind uwtable
define linkonce_odr void @_ZNSt22_Optional_payload_baseIN4absl12lts_202407226StatusEE8_StorageIS2_Lb0EED2Ev(ptr noundef nonnull align 8 dereferenceable(8) %0) unnamed_addr #7 comdat align 2 {
  %2 = alloca ptr, align 8
  store ptr %0, ptr %2, align 8, !tbaa !241
  ret void
}

; Function Attrs: mustprogress nounwind uwtable
define linkonce_odr void @_ZNSt22_Optional_payload_baseIN4absl12lts_202407226StatusEE10_M_destroyEv(ptr noundef nonnull align 8 dereferenceable(9) %0) #7 comdat align 2 {
  %2 = alloca ptr, align 8
  store ptr %0, ptr %2, align 8, !tbaa !237
  %3 = load ptr, ptr %2, align 8
  %4 = getelementptr inbounds nuw %"struct.std::_Optional_payload_base", ptr %3, i32 0, i32 1
  store i8 0, ptr %4, align 8, !tbaa !234
  %5 = getelementptr inbounds nuw %"struct.std::_Optional_payload_base", ptr %3, i32 0, i32 0
  call void @_ZN4absl12lts_202407226StatusD2Ev(ptr noundef nonnull align 8 dereferenceable(8) %5) #3
  ret void
}

; Function Attrs: mustprogress nounwind uwtable
define linkonce_odr void @_ZNSt22_Optional_payload_baseIN4absl12lts_202407226StatusEED2Ev(ptr noundef nonnull align 8 dereferenceable(9) %0) unnamed_addr #7 comdat align 2 {
  %2 = alloca ptr, align 8
  store ptr %0, ptr %2, align 8, !tbaa !237
  %3 = load ptr, ptr %2, align 8
  %4 = getelementptr inbounds nuw %"struct.std::_Optional_payload_base", ptr %3, i32 0, i32 0
  call void @_ZNSt22_Optional_payload_baseIN4absl12lts_202407226StatusEE8_StorageIS2_Lb0EED2Ev(ptr noundef nonnull align 8 dereferenceable(8) %4) #3
  ret void
}

; Function Attrs: mustprogress nounwind uwtable
define linkonce_odr void @_ZNSt22_Optional_payload_baseIN4absl12lts_202407226StatusEE8_M_resetEv(ptr noundef nonnull align 8 dereferenceable(9) %0) #7 comdat align 2 {
  %2 = alloca ptr, align 8
  store ptr %0, ptr %2, align 8, !tbaa !237
  %3 = load ptr, ptr %2, align 8
  %4 = getelementptr inbounds nuw %"struct.std::_Optional_payload_base", ptr %3, i32 0, i32 1
  %5 = load i8, ptr %4, align 8, !tbaa !234, !range !67, !noundef !68
  %6 = trunc i8 %5 to i1
  br i1 %6, label %7, label %8

7:                                                ; preds = %1
  call void @_ZNSt22_Optional_payload_baseIN4absl12lts_202407226StatusEE10_M_destroyEv(ptr noundef nonnull align 8 dereferenceable(9) %3) #3
  br label %8

8:                                                ; preds = %7, %1
  ret void
}

; Function Attrs: mustprogress nounwind uwtable
define linkonce_odr void @_ZNSt17_Optional_payloadIN4absl12lts_202407226StatusELb0ELb0ELb0EED2Ev(ptr noundef nonnull align 8 dereferenceable(9) %0) unnamed_addr #7 comdat align 2 {
  %2 = alloca ptr, align 8
  store ptr %0, ptr %2, align 8, !tbaa !235
  %3 = load ptr, ptr %2, align 8
  call void @_ZNSt22_Optional_payload_baseIN4absl12lts_202407226StatusEE8_M_resetEv(ptr noundef nonnull align 8 dereferenceable(9) %3) #3
  call void @_ZNSt22_Optional_payload_baseIN4absl12lts_202407226StatusEED2Ev(ptr noundef nonnull align 8 dereferenceable(9) %3) #3
  ret void
}

; Function Attrs: alwaysinline mustprogress nounwind uwtable
define linkonce_odr noundef i32 @_ZNSt13__atomic_baseIjE9fetch_subEjSt12memory_order(ptr noundef nonnull align 4 dereferenceable(4) %0, i32 noundef %1, i32 noundef %2) #9 comdat align 2 {
  %4 = alloca ptr, align 8
  %5 = alloca i32, align 4
  %6 = alloca i32, align 4
  %7 = alloca i32, align 4
  %8 = alloca i32, align 4
  store ptr %0, ptr %4, align 8, !tbaa !144
  store i32 %1, ptr %5, align 4, !tbaa !61
  store i32 %2, ptr %6, align 4, !tbaa !146
  %9 = load ptr, ptr %4, align 8
  %10 = getelementptr inbounds nuw %"struct.std::__atomic_base.100", ptr %9, i32 0, i32 0
  %11 = load i32, ptr %6, align 4, !tbaa !146
  %12 = load i32, ptr %5, align 4, !tbaa !61
  store i32 %12, ptr %7, align 4, !tbaa !61
  switch i32 %11, label %13 [
    i32 1, label %16
    i32 2, label %16
    i32 3, label %19
    i32 4, label %22
    i32 5, label %25
  ]

13:                                               ; preds = %3
  %14 = load i32, ptr %7, align 4
  %15 = atomicrmw sub ptr %10, i32 %14 monotonic, align 4
  store i32 %15, ptr %8, align 4
  br label %28

16:                                               ; preds = %3, %3
  %17 = load i32, ptr %7, align 4
  %18 = atomicrmw sub ptr %10, i32 %17 acquire, align 4
  store i32 %18, ptr %8, align 4
  br label %28

19:                                               ; preds = %3
  %20 = load i32, ptr %7, align 4
  %21 = atomicrmw sub ptr %10, i32 %20 release, align 4
  store i32 %21, ptr %8, align 4
  br label %28

22:                                               ; preds = %3
  %23 = load i32, ptr %7, align 4
  %24 = atomicrmw sub ptr %10, i32 %23 acq_rel, align 4
  store i32 %24, ptr %8, align 4
  br label %28

25:                                               ; preds = %3
  %26 = load i32, ptr %7, align 4
  %27 = atomicrmw sub ptr %10, i32 %26 seq_cst, align 4
  store i32 %27, ptr %8, align 4
  br label %28

28:                                               ; preds = %25, %22, %19, %16, %13
  %29 = load i32, ptr %8, align 4, !tbaa !61
  ret i32 %29
}

; Function Attrs: inlinehint mustprogress nounwind uwtable
define linkonce_odr noundef ptr @_ZN4absl12lts_202407226Status12RepToPointerEm(i64 noundef %0) #8 comdat align 2 {
  %2 = alloca i64, align 8
  store i64 %0, ptr %2, align 8, !tbaa !44
  %3 = load i64, ptr %2, align 8, !tbaa !44
  %4 = inttoptr i64 %3 to ptr
  ret ptr %4
}

; Function Attrs: mustprogress nounwind uwtable
define linkonce_odr noundef zeroext i1 @_ZN4absl12lts_202407226Status9IsInlinedEm(i64 noundef %0) #7 comdat align 2 {
  %2 = alloca i64, align 8
  store i64 %0, ptr %2, align 8, !tbaa !44
  %3 = load i64, ptr %2, align 8, !tbaa !44
  %4 = and i64 %3, 1
  %5 = icmp ne i64 %4, 0
  ret i1 %5
}

; Function Attrs: inlinehint mustprogress nounwind uwtable
define linkonce_odr void @_ZNSt14_Optional_baseIN4absl12lts_202407226StatusELb0ELb0EED2Ev(ptr noundef nonnull align 8 dereferenceable(16) %0) unnamed_addr #8 comdat align 2 {
  %2 = alloca ptr, align 8
  store ptr %0, ptr %2, align 8, !tbaa !117
  %3 = load ptr, ptr %2, align 8
  %4 = getelementptr inbounds nuw %"struct.std::_Optional_base", ptr %3, i32 0, i32 0
  call void @_ZNSt17_Optional_payloadIN4absl12lts_202407226StatusELb0ELb0ELb0EED2Ev(ptr noundef nonnull align 8 dereferenceable(9) %4) #3
  ret void
}

; Function Attrs: mustprogress nounwind uwtable
define internal void @_ZN9grpc_core12_GLOBAL__N_111FaultHandleD2Ev(ptr noundef nonnull align 1 dereferenceable(1) %0) unnamed_addr #7 align 2 {
  %2 = alloca ptr, align 8
  store ptr %0, ptr %2, align 8, !tbaa !148
  %3 = load ptr, ptr %2, align 8
  %4 = getelementptr inbounds nuw %"class.grpc_core::(anonymous namespace)::FaultHandle", ptr %3, i32 0, i32 0
  %5 = load i8, ptr %4, align 1, !tbaa !150, !range !67, !noundef !68
  %6 = trunc i8 %5 to i1
  br i1 %6, label %7, label %9

7:                                                ; preds = %1
  %8 = call noundef i32 @_ZNSt13__atomic_baseIjE9fetch_subEjSt12memory_order(ptr noundef nonnull align 4 dereferenceable(4) @_ZN9grpc_core12_GLOBAL__N_115g_active_faultsE, i32 noundef 1, i32 noundef 0) #3
  br label %9

9:                                                ; preds = %7, %1
  ret void
}

; Function Attrs: inlinehint mustprogress uwtable
define linkonce_odr void @_ZN4absl12lts_202407226Status5UnrefEm(i64 noundef %0) #6 comdat align 2 {
  %2 = alloca i64, align 8
  store i64 %0, ptr %2, align 8, !tbaa !44
  %3 = load i64, ptr %2, align 8, !tbaa !44
  %4 = call noundef zeroext i1 @_ZN4absl12lts_202407226Status9IsInlinedEm(i64 noundef %3)
  br i1 %4, label %8, label %5

5:                                                ; preds = %1
  %6 = load i64, ptr %2, align 8, !tbaa !44
  %7 = call noundef ptr @_ZN4absl12lts_202407226Status12RepToPointerEm(i64 noundef %6)
  call void @_ZNK4absl12lts_2024072215status_internal9StatusRep5UnrefEv(ptr noundef nonnull align 8 dereferenceable(48) %7)
  br label %8

8:                                                ; preds = %5, %1
  ret void
}

; Function Attrs: inlinehint mustprogress nounwind uwtable
define linkonce_odr void @_ZN9grpc_core20FaultInjectionFilter17InjectionDecisionD2Ev(ptr noundef nonnull align 8 dereferenceable(33) %0) unnamed_addr #8 comdat align 2 {
  %2 = alloca ptr, align 8
  store ptr %0, ptr %2, align 8, !tbaa !80
  %3 = load ptr, ptr %2, align 8
  %4 = getelementptr inbounds nuw %"class.grpc_core::FaultInjectionFilter::InjectionDecision", ptr %3, i32 0, i32 4
  call void @_ZN9grpc_core12_GLOBAL__N_111FaultHandleD2Ev(ptr noundef nonnull align 1 dereferenceable(1) %4) #3
  %5 = getelementptr inbounds nuw %"class.grpc_core::FaultInjectionFilter::InjectionDecision", ptr %3, i32 0, i32 3
  call void @_ZNSt14_Optional_baseIN4absl12lts_202407226StatusELb0ELb0EED2Ev(ptr noundef nonnull align 8 dereferenceable(16) %5) #3
  ret void
}

; Function Attrs: inlinehint mustprogress nounwind uwtable
define linkonce_odr void @_ZN4absl12lts_202407226StatusD2Ev(ptr noundef nonnull align 8 dereferenceable(8) %0) unnamed_addr #8 comdat align 2 personality ptr @__gxx_personality_v0 {
  %2 = alloca ptr, align 8
  store ptr %0, ptr %2, align 8, !tbaa !140
  %3 = load ptr, ptr %2, align 8
  %4 = getelementptr inbounds nuw %"class.absl::lts_20240722::Status", ptr %3, i32 0, i32 0
  %5 = load i64, ptr %4, align 8, !tbaa !142
  invoke void @_ZN4absl12lts_202407226Status5UnrefEm(i64 noundef %5)
          to label %6 unwind label %7

6:                                                ; preds = %1
  ret void

7:                                                ; preds = %1
  %8 = landingpad { ptr, i32 }
          catch ptr null
  %9 = extractvalue { ptr, i32 } %8, 0
  call void @__clang_call_terminate(ptr %9) #28
  unreachable
}

; Function Attrs: inlinehint mustprogress nounwind uwtable
define internal void @"_ZZN9grpc_core20FaultInjectionFilter4Call23OnClientInitialMetadataER19grpc_metadata_batchPS0_EN3$_0D2Ev"(ptr noundef nonnull align 8 dereferenceable(40) %0) unnamed_addr #8 align 2 {
  %2 = alloca ptr, align 8
  store ptr %0, ptr %2, align 8, !tbaa !86
  %3 = load ptr, ptr %2, align 8
  %4 = getelementptr inbounds nuw %class.anon, ptr %3, i32 0, i32 0
  call void @_ZN9grpc_core20FaultInjectionFilter17InjectionDecisionD2Ev(ptr noundef nonnull align 8 dereferenceable(33) %4) #3
  ret void
}

; Function Attrs: inlinehint mustprogress nounwind uwtable
define internal void @"_ZZN9grpc_core14promise_detail18PromiseFactoryImplIZNS_20FaultInjectionFilter4Call23OnClientInitialMetadataER19grpc_metadata_batchPS2_E3$_0EEDaNSt9enable_ifIXaaaantsr14IsVoidCallableINS0_9ResultOfTIFT_vEvE1TEEE5valuentclsr10PollTraitsISD_EE7is_pollEntsr3stdE9is_same_vISD_vEENS0_9OnceTokenEE4typeESA_ENUlvE_D2Ev"(ptr noundef nonnull align 8 dereferenceable(8) %0) unnamed_addr #8 align 2 {
  %2 = alloca ptr, align 8
  store ptr %0, ptr %2, align 8, !tbaa !86
  %3 = load ptr, ptr %2, align 8
  %4 = getelementptr inbounds nuw %class.anon.61, ptr %3, i32 0, i32 0
  call void @_ZN4absl12lts_202407226StatusD2Ev(ptr noundef nonnull align 8 dereferenceable(8) %4) #3
  ret void
}

; Function Attrs: inlinehint mustprogress nounwind uwtable
define internal void @"_ZN9grpc_core14promise_detail18OncePromiseFactoryIvZNS_20FaultInjectionFilter4Call23OnClientInitialMetadataER19grpc_metadata_batchPS2_E3$_0ED2Ev"(ptr noundef nonnull align 8 dereferenceable(40) %0) unnamed_addr #8 align 2 {
  %2 = alloca ptr, align 8
  store ptr %0, ptr %2, align 8, !tbaa !255
  %3 = load ptr, ptr %2, align 8
  %4 = getelementptr inbounds nuw %"class.grpc_core::promise_detail::OncePromiseFactory", ptr %3, i32 0, i32 0
  call void @"_ZZN9grpc_core20FaultInjectionFilter4Call23OnClientInitialMetadataER19grpc_metadata_batchPS0_EN3$_0D2Ev"(ptr noundef nonnull align 8 dereferenceable(40) %4) #3
  ret void
}

; Function Attrs: inlinehint mustprogress nounwind uwtable
define internal void @"_ZN9grpc_core14promise_detail11PromiseLikeIZNS0_18PromiseFactoryImplIZNS_20FaultInjectionFilter4Call23OnClientInitialMetadataER19grpc_metadata_batchPS3_E3$_0EEDaNSt9enable_ifIXaaaantsr14IsVoidCallableINS0_9ResultOfTIFT_vEvE1TEEE5valuentclsr10PollTraitsISE_EE7is_pollEntsr3stdE9is_same_vISE_vEENS0_9OnceTokenEE4typeESB_EUlvE_vED2Ev"(ptr noundef nonnull align 8 dereferenceable(8) %0) unnamed_addr #8 align 2 {
  %2 = alloca ptr, align 8
  store ptr %0, ptr %2, align 8, !tbaa !253
  %3 = load ptr, ptr %2, align 8
  %4 = getelementptr inbounds nuw %"class.grpc_core::promise_detail::PromiseLike.60", ptr %3, i32 0, i32 0
  call void @"_ZZN9grpc_core14promise_detail18PromiseFactoryImplIZNS_20FaultInjectionFilter4Call23OnClientInitialMetadataER19grpc_metadata_batchPS2_E3$_0EEDaNSt9enable_ifIXaaaantsr14IsVoidCallableINS0_9ResultOfTIFT_vEvE1TEEE5valuentclsr10PollTraitsISD_EE7is_pollEntsr3stdE9is_same_vISD_vEENS0_9OnceTokenEE4typeESA_ENUlvE_D2Ev"(ptr noundef nonnull align 8 dereferenceable(8) %4) #3
  ret void
}

; Function Attrs: inlinehint mustprogress nounwind uwtable
define linkonce_odr void @_ZN9grpc_core14promise_detail11PromiseLikeINS_5SleepEvED2Ev(ptr noundef nonnull align 8 dereferenceable(16) %0) unnamed_addr #8 comdat align 2 {
  %2 = alloca ptr, align 8
  store ptr %0, ptr %2, align 8, !tbaa !251
  %3 = load ptr, ptr %2, align 8
  %4 = getelementptr inbounds nuw %"class.grpc_core::promise_detail::PromiseLike", ptr %3, i32 0, i32 0
  call void @_ZN9grpc_core5SleepD1Ev(ptr noundef nonnull align 8 dereferenceable(16) %4) #3
  ret void
}

; Function Attrs: alwaysinline mustprogress nounwind uwtable
define internal void @"_ZN9grpc_core8DestructINS_14promise_detail18OncePromiseFactoryIvZNS_20FaultInjectionFilter4Call23OnClientInitialMetadataER19grpc_metadata_batchPS3_E3$_0EEEEvPT_"(ptr noundef %0) #9 {
  %2 = alloca ptr, align 8
  store ptr %0, ptr %2, align 8, !tbaa !255
  %3 = load ptr, ptr %2, align 8, !tbaa !255
  call void @"_ZN9grpc_core14promise_detail18OncePromiseFactoryIvZNS_20FaultInjectionFilter4Call23OnClientInitialMetadataER19grpc_metadata_batchPS2_E3$_0ED2Ev"(ptr noundef nonnull align 8 dereferenceable(40) %3) #3
  ret void
}

; Function Attrs: alwaysinline mustprogress nounwind uwtable
define internal void @"_ZN9grpc_core8DestructINS_14promise_detail11PromiseLikeIZNS1_18PromiseFactoryImplIZNS_20FaultInjectionFilter4Call23OnClientInitialMetadataER19grpc_metadata_batchPS4_E3$_0EEDaNSt9enable_ifIXaaaantsr14IsVoidCallableINS1_9ResultOfTIFT_vEvE1TEEE5valuentclsr10PollTraitsISF_EE7is_pollEntsr3stdE9is_same_vISF_vEENS1_9OnceTokenEE4typeESC_EUlvE_vEEEEvPSC_"(ptr noundef %0) #9 {
  %2 = alloca ptr, align 8
  store ptr %0, ptr %2, align 8, !tbaa !253
  %3 = load ptr, ptr %2, align 8, !tbaa !253
  call void @"_ZN9grpc_core14promise_detail11PromiseLikeIZNS0_18PromiseFactoryImplIZNS_20FaultInjectionFilter4Call23OnClientInitialMetadataER19grpc_metadata_batchPS3_E3$_0EEDaNSt9enable_ifIXaaaantsr14IsVoidCallableINS0_9ResultOfTIFT_vEvE1TEEE5valuentclsr10PollTraitsISE_EE7is_pollEntsr3stdE9is_same_vISE_vEENS0_9OnceTokenEE4typeESB_EUlvE_vED2Ev"(ptr noundef nonnull align 8 dereferenceable(8) %3) #3
  ret void
}

; Function Attrs: alwaysinline mustprogress nounwind uwtable
define linkonce_odr void @_ZN9grpc_core8DestructINS_14promise_detail11PromiseLikeINS_5SleepEvEEEEvPT_(ptr noundef %0) #9 comdat {
  %2 = alloca ptr, align 8
  store ptr %0, ptr %2, align 8, !tbaa !251
  %3 = load ptr, ptr %2, align 8, !tbaa !251
  call void @_ZN9grpc_core14promise_detail11PromiseLikeINS_5SleepEvED2Ev(ptr noundef nonnull align 8 dereferenceable(16) %3) #3
  ret void
}

; Function Attrs: alwaysinline mustprogress nounwind uwtable
define internal void @"_ZN9grpc_core14promise_detail8SeqStateINS0_12TrySeqTraitsENS_5SleepEJZNS_20FaultInjectionFilter4Call23OnClientInitialMetadataER19grpc_metadata_batchPS4_E3$_0EED2Ev"(ptr noundef nonnull align 8 dereferenceable(57) %0) unnamed_addr #9 align 2 personality ptr @__gxx_personality_v0 {
  %2 = alloca ptr, align 8
  store ptr %0, ptr %2, align 8, !tbaa !247
  %3 = load ptr, ptr %2, align 8
  %4 = getelementptr inbounds nuw %"struct.grpc_core::promise_detail::SeqState", ptr %3, i32 0, i32 1
  %5 = load i8, ptr %4, align 8, !tbaa !249
  switch i8 %5, label %13 [
    i8 0, label %6
    i8 1, label %10
  ]

6:                                                ; preds = %1
  %7 = getelementptr inbounds nuw %"struct.grpc_core::promise_detail::SeqState", ptr %3, i32 0, i32 0
  %8 = getelementptr inbounds nuw %"struct.grpc_core::promise_detail::SeqState<grpc_core::promise_detail::TrySeqTraits, grpc_core::Sleep, (lambda at /home/dtcxzyw/WorkSpace/Projects/compilers/llvm-opt-benchmark/bench/grpc/grpc/src/core/ext/filters/fault_injection/fault_injection_filter.cc:147:31)>::Running0", ptr %7, i32 0, i32 0
  invoke void @_ZN9grpc_core8DestructINS_14promise_detail11PromiseLikeINS_5SleepEvEEEEvPT_(ptr noundef %8)
          to label %9 unwind label %18

9:                                                ; preds = %6
  br label %14

10:                                               ; preds = %1
  %11 = getelementptr inbounds nuw %"struct.grpc_core::promise_detail::SeqState", ptr %3, i32 0, i32 0
  invoke void @"_ZN9grpc_core8DestructINS_14promise_detail11PromiseLikeIZNS1_18PromiseFactoryImplIZNS_20FaultInjectionFilter4Call23OnClientInitialMetadataER19grpc_metadata_batchPS4_E3$_0EEDaNSt9enable_ifIXaaaantsr14IsVoidCallableINS1_9ResultOfTIFT_vEvE1TEEE5valuentclsr10PollTraitsISF_EE7is_pollEntsr3stdE9is_same_vISF_vEENS1_9OnceTokenEE4typeESC_EUlvE_vEEEEvPSC_"(ptr noundef %11)
          to label %12 unwind label %18

12:                                               ; preds = %10
  br label %17

13:                                               ; preds = %1
  br label %14

14:                                               ; preds = %13, %9
  %15 = getelementptr inbounds nuw %"struct.grpc_core::promise_detail::SeqState", ptr %3, i32 0, i32 0
  %16 = getelementptr inbounds nuw %"struct.grpc_core::promise_detail::SeqState<grpc_core::promise_detail::TrySeqTraits, grpc_core::Sleep, (lambda at /home/dtcxzyw/WorkSpace/Projects/compilers/llvm-opt-benchmark/bench/grpc/grpc/src/core/ext/filters/fault_injection/fault_injection_filter.cc:147:31)>::Running0", ptr %15, i32 0, i32 1
  invoke void @"_ZN9grpc_core8DestructINS_14promise_detail18OncePromiseFactoryIvZNS_20FaultInjectionFilter4Call23OnClientInitialMetadataER19grpc_metadata_batchPS3_E3$_0EEEEvPT_"(ptr noundef %16)
          to label %17 unwind label %18

17:                                               ; preds = %12, %14
  ret void

18:                                               ; preds = %14, %10, %6
  %19 = landingpad { ptr, i32 }
          catch ptr null
  %20 = extractvalue { ptr, i32 } %19, 0
  call void @__clang_call_terminate(ptr %20) #28
  unreachable
}

; Function Attrs: inlinehint mustprogress nounwind uwtable
define internal void @"_ZN9grpc_core14promise_detail6TrySeqINS_5SleepEJZNS_20FaultInjectionFilter4Call23OnClientInitialMetadataER19grpc_metadata_batchPS3_E3$_0EED2Ev"(ptr noundef nonnull align 8 dereferenceable(64) %0) unnamed_addr #8 align 2 {
  %2 = alloca ptr, align 8
  store ptr %0, ptr %2, align 8, !tbaa !91
  %3 = load ptr, ptr %2, align 8
  %4 = getelementptr inbounds nuw %"class.grpc_core::promise_detail::TrySeq", ptr %3, i32 0, i32 0
  call void @"_ZN9grpc_core14promise_detail8SeqStateINS0_12TrySeqTraitsENS_5SleepEJZNS_20FaultInjectionFilter4Call23OnClientInitialMetadataER19grpc_metadata_batchPS4_E3$_0EED2Ev"(ptr noundef nonnull align 8 dereferenceable(57) %4) #3
  ret void
}