; Function Attrs: inlinehint mustprogress nounwind uwtable
define internal fastcc void @"_ZN9grpc_core14promise_detail6TrySeqINS_5SleepEJZNS_20FaultInjectionFilter4Call23OnClientInitialMetadataER19grpc_metadata_batchPS3_E3$_0EED2Ev"(ptr noundef nonnull align 8 dereferenceable(64) %0) unnamed_addr #10 align 2 personality ptr @__gxx_personality_v0 {
  %2 = getelementptr inbounds nuw i8, ptr %0, i64 56
  %3 = load i8, ptr %2, align 8, !tbaa !69
  switch i8 %3, label %12 [
    i8 0, label %4
    i8 1, label %5
  ]

4:                                                ; preds = %1
  tail call void @_ZN9grpc_core5SleepD1Ev(ptr noundef nonnull align 8 dereferenceable(57) %0) #36
  br label %12

5:                                                ; preds = %1
  %.val = load i64, ptr %0, align 8, !tbaa !11
  %6 = and i64 %.val, 1
  %.not.i.i.i.i = icmp eq i64 %6, 0
  br i1 %.not.i.i.i.i, label %7, label %"_ZN9grpc_core14promise_detail8SeqStateINS0_12TrySeqTraitsENS_5SleepEJZNS_20FaultInjectionFilter4Call23OnClientInitialMetadataER19grpc_metadata_batchPS4_E3$_0EED2Ev.exit"

7:                                                ; preds = %5
  %8 = inttoptr i64 %.val to ptr
  invoke void @_ZNK4absl12lts_2024072215status_internal9StatusRep5UnrefEv(ptr noundef nonnull align 8 dereferenceable(48) %8)
          to label %"_ZN9grpc_core14promise_detail8SeqStateINS0_12TrySeqTraitsENS_5SleepEJZNS_20FaultInjectionFilter4Call23OnClientInitialMetadataER19grpc_metadata_batchPS4_E3$_0EED2Ev.exit" unwind label %9

9:                                                ; preds = %7
  %10 = landingpad { ptr, i32 }
          catch ptr null
  %11 = extractvalue { ptr, i32 } %10, 0
  tail call void @__clang_call_terminate(ptr %11) #39
  unreachable

12:                                               ; preds = %4, %1
  %13 = getelementptr inbounds nuw i8, ptr %0, i64 48
  %.val.i.i.i = load i8, ptr %13, align 8, !tbaa !76, !range !63, !noundef !64
  %14 = trunc nuw i8 %.val.i.i.i to i1
  br i1 %14, label %15, label %_ZN9grpc_core12_GLOBAL__N_111FaultHandleD2Ev.exit.i.i.i

15:                                               ; preds = %12
  %16 = atomicrmw sub ptr @_ZN9grpc_core12_GLOBAL__N_115g_active_faultsE, i32 1 monotonic, align 4
  br label %_ZN9grpc_core12_GLOBAL__N_111FaultHandleD2Ev.exit.i.i.i

_ZN9grpc_core12_GLOBAL__N_111FaultHandleD2Ev.exit.i.i.i: ; preds = %15, %12
  %17 = getelementptr inbounds nuw i8, ptr %0, i64 40
  %18 = load i8, ptr %17, align 8, !tbaa !68, !range !63, !noundef !64
  %19 = trunc nuw i8 %18 to i1
  br i1 %19, label %20, label %"_ZN9grpc_core14promise_detail8SeqStateINS0_12TrySeqTraitsENS_5SleepEJZNS_20FaultInjectionFilter4Call23OnClientInitialMetadataER19grpc_metadata_batchPS4_E3$_0EED2Ev.exit"

20:                                               ; preds = %_ZN9grpc_core12_GLOBAL__N_111FaultHandleD2Ev.exit.i.i.i
  %21 = getelementptr inbounds nuw i8, ptr %0, i64 32
  store i8 0, ptr %17, align 8, !tbaa !68
  %22 = load i64, ptr %21, align 8, !tbaa !11
  %23 = and i64 %22, 1
  %.not.i.i.i.i.i.i.i.i.i = icmp eq i64 %23, 0
  br i1 %.not.i.i.i.i.i.i.i.i.i, label %24, label %"_ZN9grpc_core14promise_detail8SeqStateINS0_12TrySeqTraitsENS_5SleepEJZNS_20FaultInjectionFilter4Call23OnClientInitialMetadataER19grpc_metadata_batchPS4_E3$_0EED2Ev.exit"

24:                                               ; preds = %20
  %25 = inttoptr i64 %22 to ptr
  invoke void @_ZNK4absl12lts_2024072215status_internal9StatusRep5UnrefEv(ptr noundef nonnull align 8 dereferenceable(48) %25)
          to label %"_ZN9grpc_core14promise_detail8SeqStateINS0_12TrySeqTraitsENS_5SleepEJZNS_20FaultInjectionFilter4Call23OnClientInitialMetadataER19grpc_metadata_batchPS4_E3$_0EED2Ev.exit" unwind label %26

26:                                               ; preds = %24
  %27 = landingpad { ptr, i32 }
          catch ptr null
  %28 = extractvalue { ptr, i32 } %27, 0
  tail call void @__clang_call_terminate(ptr %28) #39
  unreachable

"_ZN9grpc_core14promise_detail8SeqStateINS0_12TrySeqTraitsENS_5SleepEJZNS_20FaultInjectionFilter4Call23OnClientInitialMetadataER19grpc_metadata_batchPS4_E3$_0EED2Ev.exit": ; preds = %24, %20, %_ZN9grpc_core12_GLOBAL__N_111FaultHandleD2Ev.exit.i.i.i, %7, %5
  ret void
}